; Function Attrs: mustprogress uwtable
define hidden noundef zeroext i1 @_ZN6spacer17contains_defaultsEP4exprR11ast_manager(ptr noundef %fml, ptr noundef nonnull align 8 dereferenceable(976) %m) local_unnamed_addr #3 personality ptr @__gxx_personality_v0 {
invoke.cont:
  %pred = alloca %"class.spacer::contains_def_pred", align 8
  %check = alloca %class.check_pred, align 8
  store ptr getelementptr inbounds ({ [5 x ptr] }, ptr @_ZTVN6spacer17contains_def_predE, i64 0, i32 0, i64 2), ptr %pred, align 8
  %m_autil.i = getelementptr inbounds i8, ptr %pred, i64 8
  call void @_ZN10array_utilC1ER11ast_manager(ptr noundef nonnull align 8 dereferenceable(16) %m_autil.i, ptr noundef nonnull align 8 dereferenceable(976) %m)
  store ptr %pred, ptr %check, align 8
  %m_pred_holds.i = getelementptr inbounds i8, ptr %check, i64 8
  store ptr getelementptr inbounds ({ [6 x ptr] }, ptr @_ZTV8ast_mark, i64 0, i32 0, i64 2), ptr %m_pred_holds.i, align 8
  %m_marks.i.i.i = getelementptr inbounds i8, ptr %check, i64 24
  call void @llvm.memset.p0.i64(ptr noundef nonnull align 8 dereferenceable(16) %m_marks.i.i.i, i8 0, i64 16, i1 false)
  %m_marks.i1.i.i = getelementptr inbounds i8, ptr %check, i64 48
  call void @llvm.memset.p0.i64(ptr noundef nonnull align 8 dereferenceable(16) %m_marks.i1.i.i, i8 0, i64 16, i1 false)
  %m_visited.i = getelementptr inbounds i8, ptr %check, i64 64
  store ptr getelementptr inbounds ({ [6 x ptr] }, ptr @_ZTV8ast_mark, i64 0, i32 0, i64 2), ptr %m_visited.i, align 8
  %m_marks.i.i2.i = getelementptr inbounds i8, ptr %check, i64 80
  call void @llvm.memset.p0.i64(ptr noundef nonnull align 8 dereferenceable(16) %m_marks.i.i2.i, i8 0, i64 16, i1 false)
  %m_marks.i1.i3.i = getelementptr inbounds i8, ptr %check, i64 104
  call void @llvm.memset.p0.i64(ptr noundef nonnull align 8 dereferenceable(16) %m_marks.i1.i3.i, i8 0, i64 16, i1 false)
  %m_refs.i = getelementptr inbounds i8, ptr %check, i64 120
  %0 = ptrtoint ptr %m to i64
  store i64 %0, ptr %m_refs.i, align 8
  %m_nodes.i.i.i = getelementptr inbounds i8, ptr %check, i64 128
  store ptr null, ptr %m_nodes.i.i.i, align 8
  %m_check_quantifiers.i = getelementptr inbounds i8, ptr %check, i64 136
  store i8 0, ptr %m_check_quantifiers.i, align 8
  %call = invoke noundef zeroext i1 @_ZN10check_predclEP4expr(ptr noundef nonnull align 8 dereferenceable(137) %check, ptr noundef %fml)
          to label %invoke.cont2 unwind label %lpad1

invoke.cont2:                                     ; preds = %invoke.cont
  call void @_ZN10check_predD2Ev(ptr noundef nonnull align 8 dereferenceable(137) %check) #20
  ret i1 %call

lpad1:                                            ; preds = %invoke.cont
  %1 = landingpad { ptr, i32 }
          cleanup
  call void @_ZN10check_predD2Ev(ptr noundef nonnull align 8 dereferenceable(137) %check) #20
  resume { ptr, i32 } %1
}